; Function Attrs: mustprogress uwtable
define internal void @_ZL22pj_axisswap_reverse_3d6PJ_XYZP8PJconsts(ptr dead_on_unwind noalias writable writeonly sret(%struct.PJ_LPZ) align 8 captures(none) %0, ptr noundef readonly byval(%struct.PJ_XYZ) align 8 captures(none) %1, ptr noundef readonly captures(none) %2) #0 {
  %4 = alloca %union.PJ_COORD, align 8
  %5 = alloca %union.PJ_COORD, align 8
  %6 = getelementptr inbounds nuw i8, ptr %2, i64 88
  %7 = load ptr, ptr %6, align 8, !tbaa !40
  call void @llvm.lifetime.start.p0(i64 32, ptr nonnull %4) #13
  call void @llvm.lifetime.start.p0(i64 32, ptr nonnull %5) #13
  call void @_Z16proj_coord_errorv(ptr dead_on_unwind nonnull writable sret(%union.PJ_COORD) align 8 %5)
  %8 = load double, ptr %1, align 8, !tbaa !71
  store double %8, ptr %4, align 8, !tbaa !47
  %9 = getelementptr inbounds nuw i8, ptr %1, i64 8
  %10 = load double, ptr %9, align 8, !tbaa !73
  %11 = getelementptr inbounds nuw i8, ptr %4, i64 8
  store double %10, ptr %11, align 8, !tbaa !47
  %12 = getelementptr inbounds nuw i8, ptr %1, i64 16
  %13 = load double, ptr %12, align 8, !tbaa !74
  %14 = getelementptr inbounds nuw i8, ptr %4, i64 16
  store double %13, ptr %14, align 8, !tbaa !47
  %15 = getelementptr inbounds nuw i8, ptr %7, i64 16
  br label %16

16:                                               ; preds = %3, %16
  %indvars.iv = phi i64 [ 0, %3 ], [ %indvars.iv.next, %16 ]
  %17 = getelementptr inbounds nuw [4 x double], ptr %4, i64 0, i64 %indvars.iv
  %18 = load double, ptr %17, align 8, !tbaa !47
  %19 = getelementptr inbounds nuw [4 x i32], ptr %15, i64 0, i64 %indvars.iv
  %20 = load i32, ptr %19, align 4, !tbaa !42
  %21 = sitofp i32 %20 to double
  %22 = fmul double %18, %21
  %23 = getelementptr inbounds nuw [4 x i32], ptr %7, i64 0, i64 %indvars.iv
  %24 = load i32, ptr %23, align 4, !tbaa !42
  %25 = zext i32 %24 to i64
  %26 = getelementptr inbounds nuw [4 x double], ptr %5, i64 0, i64 %25
  store double %22, ptr %26, align 8, !tbaa !47
  %indvars.iv.next = add nuw nsw i64 %indvars.iv, 1
  %exitcond.not = icmp eq i64 %indvars.iv.next, 3
  br i1 %exitcond.not, label %27, label %16, !llvm.loop !75

27:                                               ; preds = %16
  call void @llvm.memcpy.p0.p0.i64(ptr noundef nonnull align 8 dereferenceable(24) %0, ptr noundef nonnull align 8 dereferenceable(24) %5, i64 24, i1 false), !tbaa.struct !69
  call void @llvm.lifetime.end.p0(i64 32, ptr nonnull %5) #13
  call void @llvm.lifetime.end.p0(i64 32, ptr nonnull %4) #13
  ret void
}